target datalayout = "e-m:e-p270:32:32-p271:32:32-p272:64:64-i64:64-i128:128-f80:128-n8:16:32:64-S128"
target triple = "x86_64-pc-linux-gnu"

; Function Attrs: nounwind uwtable
define internal zeroext i1 @get_nextfield(ptr noundef %0, ptr noundef %1) #0 {
  %3 = alloca i1, align 1
  %4 = alloca ptr, align 8
  %5 = alloca ptr, align 8
  %6 = alloca i32, align 4
  %7 = alloca i32, align 4
  %8 = alloca i32, align 4
  %9 = alloca i32, align 4
  %10 = alloca i32, align 4
  store ptr %0, ptr %4, align 8
  store ptr %1, ptr %5, align 8
  call void @llvm.lifetime.start.p0(i64 4, ptr %6) #11
  store i32 0, ptr %6, align 4
  call void @llvm.lifetime.start.p0(i64 4, ptr %7) #11
  store i32 8192, ptr %7, align 4
  br label %11

11:                                               ; preds = %103, %2
  %12 = load ptr, ptr %4, align 8
  %13 = load ptr, ptr %12, align 8
  %14 = load i8, ptr %13, align 1
  %15 = icmp ne i8 %14, 0
  br i1 %15, label %16, label %111

16:                                               ; preds = %11
  %17 = load i32, ptr %6, align 4
  %18 = icmp eq i32 %17, 0
  br i1 %18, label %19, label %64

19:                                               ; preds = %16
  %20 = load ptr, ptr %4, align 8
  %21 = load ptr, ptr %20, align 8
  %22 = load i8, ptr %21, align 1
  %23 = zext i8 %22 to i32
  %24 = icmp eq i32 %23, 35
  br i1 %24, label %25, label %26

25:                                               ; preds = %19
  store i1 false, ptr %3, align 1
  store i32 1, ptr %8, align 4
  br label %115

26:                                               ; preds = %19
  %27 = call ptr @__ctype_b_loc() #13
  %28 = load ptr, ptr %27, align 8
  %29 = load ptr, ptr %4, align 8
  %30 = load ptr, ptr %29, align 8
  %31 = load i8, ptr %30, align 1
  %32 = zext i8 %31 to i32
  %33 = sext i32 %32 to i64
  %34 = getelementptr inbounds i16, ptr %28, i64 %33
  %35 = load i16, ptr %34, align 2
  %36 = zext i16 %35 to i32
  %37 = and i32 %36, 8192
  %38 = icmp ne i32 %37, 0
  br i1 %38, label %62, label %39

39:                                               ; preds = %26
  call void @llvm.lifetime.start.p0(i64 4, ptr %9) #11
  %40 = load ptr, ptr %4, align 8
  %41 = load ptr, ptr %40, align 8
  %42 = call i32 @pg_mblen(ptr noundef %41)
  store i32 %42, ptr %9, align 4
  %43 = load i32, ptr %9, align 4
  %44 = load i32, ptr %7, align 4
  %45 = icmp slt i32 %43, %44
  br i1 %45, label %46, label %61

46:                                               ; preds = %39
  %47 = load ptr, ptr %5, align 8
  %48 = load ptr, ptr %4, align 8
  %49 = load ptr, ptr %48, align 8
  %50 = load ptr, ptr %4, align 8
  %51 = load ptr, ptr %50, align 8
  %52 = call i32 @pg_mblen(ptr noundef %51)
  %53 = sext i32 %52 to i64
  call void @llvm.memcpy.p0.p0.i64(ptr align 1 %47, ptr align 1 %49, i64 %53, i1 false)
  %54 = load i32, ptr %9, align 4
  %55 = load ptr, ptr %5, align 8
  %56 = sext i32 %54 to i64
  %57 = getelementptr inbounds i8, ptr %55, i64 %56
  store ptr %57, ptr %5, align 8
  %58 = load i32, ptr %9, align 4
  %59 = load i32, ptr %7, align 4
  %60 = sub i32 %59, %58
  store i32 %60, ptr %7, align 4
  br label %61

61:                                               ; preds = %46, %39
  store i32 1, ptr %6, align 4
  call void @llvm.lifetime.end.p0(i64 4, ptr %9) #11
  br label %62

62:                                               ; preds = %61, %26
  br label %63

63:                                               ; preds = %62
  br label %103

64:                                               ; preds = %16
  %65 = call ptr @__ctype_b_loc() #13
  %66 = load ptr, ptr %65, align 8
  %67 = load ptr, ptr %4, align 8
  %68 = load ptr, ptr %67, align 8
  %69 = load i8, ptr %68, align 1
  %70 = zext i8 %69 to i32
  %71 = sext i32 %70 to i64
  %72 = getelementptr inbounds i16, ptr %66, i64 %71
  %73 = load i16, ptr %72, align 2
  %74 = zext i16 %73 to i32
  %75 = and i32 %74, 8192
  %76 = icmp ne i32 %75, 0
  br i1 %76, label %77, label %79

77:                                               ; preds = %64
  %78 = load ptr, ptr %5, align 8
  store i8 0, ptr %78, align 1
  store i1 true, ptr %3, align 1
  store i32 1, ptr %8, align 4
  br label %115

79:                                               ; preds = %64
  call void @llvm.lifetime.start.p0(i64 4, ptr %10) #11
  %80 = load ptr, ptr %4, align 8
  %81 = load ptr, ptr %80, align 8
  %82 = call i32 @pg_mblen(ptr noundef %81)
  store i32 %82, ptr %10, align 4
  %83 = load i32, ptr %10, align 4
  %84 = load i32, ptr %7, align 4
  %85 = icmp slt i32 %83, %84
  br i1 %85, label %86, label %101

86:                                               ; preds = %79
  %87 = load ptr, ptr %5, align 8
  %88 = load ptr, ptr %4, align 8
  %89 = load ptr, ptr %88, align 8
  %90 = load ptr, ptr %4, align 8
  %91 = load ptr, ptr %90, align 8
  %92 = call i32 @pg_mblen(ptr noundef %91)
  %93 = sext i32 %92 to i64
  call void @llvm.memcpy.p0.p0.i64(ptr align 1 %87, ptr align 1 %89, i64 %93, i1 false)
  %94 = load i32, ptr %10, align 4
  %95 = load ptr, ptr %5, align 8
  %96 = sext i32 %94 to i64
  %97 = getelementptr inbounds i8, ptr %95, i64 %96
  store ptr %97, ptr %5, align 8
  %98 = load i32, ptr %10, align 4
  %99 = load i32, ptr %7, align 4
  %100 = sub i32 %99, %98
  store i32 %100, ptr %7, align 4
  br label %101

101:                                              ; preds = %86, %79
  call void @llvm.lifetime.end.p0(i64 4, ptr %10) #11
  br label %102

102:                                              ; preds = %101
  br label %103

103:                                              ; preds = %102, %63
  %104 = load ptr, ptr %4, align 8
  %105 = load ptr, ptr %104, align 8
  %106 = call i32 @pg_mblen(ptr noundef %105)
  %107 = load ptr, ptr %4, align 8
  %108 = load ptr, ptr %107, align 8
  %109 = sext i32 %106 to i64
  %110 = getelementptr inbounds i8, ptr %108, i64 %109
  store ptr %110, ptr %107, align 8
  br label %11, !llvm.loop !53

111:                                              ; preds = %11
  %112 = load ptr, ptr %5, align 8
  store i8 0, ptr %112, align 1
  %113 = load i32, ptr %6, align 4
  %114 = icmp eq i32 %113, 1
  store i1 %114, ptr %3, align 1
  store i32 1, ptr %8, align 4
  br label %115

115:                                              ; preds = %111, %77, %25
  call void @llvm.lifetime.end.p0(i64 4, ptr %7) #11
  call void @llvm.lifetime.end.p0(i64 4, ptr %6) #11
  %116 = load i1, ptr %3, align 1
  ret i1 %116
}