; Function Attrs: nounwind uwtable
define internal fastcc noundef zeroext i1 @get_nextfield(ptr noundef nonnull captures(none) %0, ptr noundef nonnull writeonly captures(none) %1) unnamed_addr #0 {
  %3 = load ptr, ptr %0, align 8
  %4 = load i8, ptr %3, align 1
  %.not47 = icmp eq i8 %4, 0
  br i1 %.not47, label %.loopexit.sink.split, label %.lr.ph

.lr.ph:                                           ; preds = %2, %36
  %5 = phi i8 [ %43, %36 ], [ %4, %2 ]
  %6 = phi ptr [ %42, %36 ], [ %3, %2 ]
  %.03050 = phi ptr [ %.2, %36 ], [ %1, %2 ]
  %.03149 = phi i32 [ %.233, %36 ], [ 8192, %2 ]
  %.03548 = phi i32 [ %.136, %36 ], [ 0, %2 ]
  %7 = icmp eq i32 %.03548, 0
  br i1 %7, label %8, label %20

8:                                                ; preds = %.lr.ph
  %9 = icmp eq i8 %5, 35
  br i1 %9, label %.loopexit, label %10

10:                                               ; preds = %8
  %11 = tail call ptr @__ctype_b_loc() #16
  %12 = load ptr, ptr %11, align 8
  %13 = zext i8 %5 to i64
  %14 = getelementptr inbounds nuw i16, ptr %12, i64 %13
  %15 = load i16, ptr %14, align 2
  %16 = and i16 %15, 8192
  %.not42 = icmp eq i16 %16, 0
  br i1 %.not42, label %17, label %36

17:                                               ; preds = %10
  %18 = tail call i32 @pg_mblen(ptr noundef nonnull %6) #14
  %19 = icmp slt i32 %18, %.03149
  br i1 %19, label %.sink.split, label %36

20:                                               ; preds = %.lr.ph
  %21 = tail call ptr @__ctype_b_loc() #16
  %22 = load ptr, ptr %21, align 8
  %23 = zext i8 %5 to i64
  %24 = getelementptr inbounds nuw i16, ptr %22, i64 %23
  %25 = load i16, ptr %24, align 2
  %26 = and i16 %25, 8192
  %.not41 = icmp eq i16 %26, 0
  br i1 %.not41, label %27, label %.loopexit.sink.split

27:                                               ; preds = %20
  %28 = tail call i32 @pg_mblen(ptr noundef nonnull %6) #14
  %29 = icmp slt i32 %28, %.03149
  br i1 %29, label %.sink.split, label %36

.sink.split:                                      ; preds = %27, %17
  %.sink57 = phi i32 [ %18, %17 ], [ %28, %27 ]
  %30 = load ptr, ptr %0, align 8
  %31 = tail call i32 @pg_mblen(ptr noundef %30) #14
  %32 = sext i32 %31 to i64
  tail call void @llvm.memcpy.p0.p0.i64(ptr align 1 %.03050, ptr align 1 %30, i64 %32, i1 false)
  %33 = sext i32 %.sink57 to i64
  %34 = getelementptr inbounds i8, ptr %.03050, i64 %33
  %35 = sub i32 %.03149, %.sink57
  br label %36

36:                                               ; preds = %.sink.split, %27, %17, %10
  %37 = phi i1 [ false, %10 ], [ true, %17 ], [ true, %27 ], [ true, %.sink.split ]
  %.136 = phi i32 [ 0, %10 ], [ 1, %17 ], [ 1, %27 ], [ 1, %.sink.split ]
  %.233 = phi i32 [ %.03149, %10 ], [ %.03149, %17 ], [ %.03149, %27 ], [ %35, %.sink.split ]
  %.2 = phi ptr [ %.03050, %10 ], [ %.03050, %17 ], [ %.03050, %27 ], [ %34, %.sink.split ]
  %38 = load ptr, ptr %0, align 8
  %39 = tail call i32 @pg_mblen(ptr noundef %38) #14
  %40 = load ptr, ptr %0, align 8
  %41 = sext i32 %39 to i64
  %42 = getelementptr inbounds i8, ptr %40, i64 %41
  store ptr %42, ptr %0, align 8
  %43 = load i8, ptr %42, align 1
  %.not = icmp eq i8 %43, 0
  br i1 %.not, label %.loopexit.sink.split, label %.lr.ph, !llvm.loop !62

.loopexit.sink.split:                             ; preds = %36, %20, %2
  %.030.lcssa.sink = phi ptr [ %1, %2 ], [ %.03050, %20 ], [ %.2, %36 ]
  %.0.ph = phi i1 [ false, %2 ], [ true, %20 ], [ %37, %36 ]
  store i8 0, ptr %.030.lcssa.sink, align 1
  br label %.loopexit

.loopexit:                                        ; preds = %8, %.loopexit.sink.split
  %.0 = phi i1 [ %.0.ph, %.loopexit.sink.split ], [ false, %8 ]
  ret i1 %.0
}